target datalayout = "e-m:e-p270:32:32-p271:32:32-p272:64:64-i64:64-i128:128-f80:128-n8:16:32:64-S128"
target triple = "x86_64-pc-linux-gnu"

%struct.gmx_sel_lexer_t = type { ptr, %"class.std::__exception_ptr::exception_ptr", i8, ptr, i32, ptr, %"class.std::__cxx11::basic_string", %"struct.gmx::SelectionLocation", ptr, i32, i32, i32, ptr, i8, ptr, i32, i8, i8, i8, i8, ptr }
%"class.std::__exception_ptr::exception_ptr" = type { ptr }
%"class.std::__cxx11::basic_string" = type { %"struct.std::__cxx11::basic_string<char>::_Alloc_hider", i64, %union.anon }
%"struct.std::__cxx11::basic_string<char>::_Alloc_hider" = type { ptr }
%union.anon = type { i64, [8 x i8] }
%"struct.gmx::SelectionLocation" = type { i32, i32 }

; Function Attrs: mustprogress uwtable
define void @_Z27_gmx_sel_set_lex_input_filePvP8_IO_FILE(ptr noundef %0, ptr noundef %1) #0 {
  %3 = alloca ptr, align 8
  %4 = alloca ptr, align 8
  %5 = alloca ptr, align 8
  store ptr %0, ptr %3, align 8
  store ptr %1, ptr %4, align 8
  %6 = load ptr, ptr %3, align 8
  %7 = call noundef ptr @_Z20_gmx_sel_yyget_extraPv(ptr noundef %6)
  store ptr %7, ptr %5, align 8
  %8 = load ptr, ptr %5, align 8
  %9 = getelementptr inbounds %struct.gmx_sel_lexer_t, ptr %8, i32 0, i32 19
  store i8 1, ptr %9, align 1
  %10 = load ptr, ptr %4, align 8
  %11 = load ptr, ptr %3, align 8
  %12 = call noundef ptr @_Z25_gmx_sel_yy_create_bufferP8_IO_FILEiPv(ptr noundef %10, i32 noundef 16384, ptr noundef %11)
  %13 = load ptr, ptr %5, align 8
  %14 = getelementptr inbounds %struct.gmx_sel_lexer_t, ptr %13, i32 0, i32 20
  store ptr %12, ptr %14, align 8
  %15 = load ptr, ptr %5, align 8
  %16 = getelementptr inbounds %struct.gmx_sel_lexer_t, ptr %15, i32 0, i32 20
  %17 = load ptr, ptr %16, align 8
  %18 = load ptr, ptr %3, align 8
  call void @_Z28_gmx_sel_yy_switch_to_bufferP15yy_buffer_statePv(ptr noundef %17, ptr noundef %18)
  ret void
}