; Function Attrs: mustprogress uwtable
define void @_Z27_gmx_sel_set_lex_input_filePvP8_IO_FILE(ptr noundef %0, ptr noundef %1) local_unnamed_addr #0 {
  %3 = tail call noundef ptr @_Z20_gmx_sel_yyget_extraPv(ptr noundef %0)
  %4 = getelementptr inbounds i8, ptr %3, i64 143
  store i8 1, ptr %4, align 1
  %5 = tail call noundef ptr @_Z25_gmx_sel_yy_create_bufferP8_IO_FILEiPv(ptr noundef %1, i32 noundef 16384, ptr noundef %0)
  %6 = getelementptr inbounds i8, ptr %3, i64 144
  store ptr %5, ptr %6, align 8
  tail call void @_Z28_gmx_sel_yy_switch_to_bufferP15yy_buffer_statePv(ptr noundef %5, ptr noundef %0)
  ret void
}